; Function Attrs: mustprogress nounwind uwtable
define noundef ptr @ShGetExecutable(ptr noundef %0) local_unnamed_addr #3 {
  %2 = icmp eq ptr %0, null
  br i1 %2, label %14, label %3

3:                                                ; preds = %1
  %4 = load ptr, ptr %0, align 8
  %5 = getelementptr inbounds nuw i8, ptr %4, i64 24
  %6 = load ptr, ptr %5, align 8
  %7 = tail call noundef ptr %6(ptr noundef nonnull align 8 dereferenceable(16) %0) #24
  %8 = icmp eq ptr %7, null
  br i1 %8, label %14, label %9

9:                                                ; preds = %3
  %10 = load ptr, ptr %7, align 8
  %11 = getelementptr inbounds nuw i8, ptr %10, i64 104
  %12 = load ptr, ptr %11, align 8
  %13 = tail call noundef ptr %12(ptr noundef nonnull align 8 dereferenceable(72) %7) #24
  br label %14

14:                                               ; preds = %3, %1, %9
  %.0 = phi ptr [ %13, %9 ], [ null, %1 ], [ null, %3 ]
  ret ptr %.0
}